; Function Attrs: mustprogress uwtable
define void @_ZN6icu_7518CurrencyPluralInfo8copyHashEPKNS_9HashtableEPS1_R10UErrorCode(ptr nocapture nonnull readnone align 8 %this, ptr noundef readonly %source, ptr nocapture noundef readonly %target, ptr noundef nonnull align 4 dereferenceable(4) %status) local_unnamed_addr #1 align 2 personality ptr @__gxx_personality_v0 {
entry:
  %pos = alloca i32, align 4
  %ref.tmp = alloca %"class.icu_75::UnicodeString", align 8
  %0 = load i32, ptr %status, align 4
  %cmp.i = icmp slt i32 %0, 1
  br i1 %cmp.i, label %if.end, label %if.end25

if.end:                                           ; preds = %entry
  store i32 -1, ptr %pos, align 4
  %tobool2.not = icmp eq ptr %source, null
  br i1 %tobool2.not, label %if.end25, label %while.cond

while.cond:                                       ; preds = %if.end, %_ZN6icu_7512LocalPointerINS_13UnicodeStringEED2Ev.exit
  %1 = load ptr, ptr %source, align 8
  %call.i = call noundef ptr @uhash_nextElement_75(ptr noundef %1, ptr noundef nonnull %pos)
  %cmp.not = icmp eq ptr %call.i, null
  br i1 %cmp.not, label %if.end25, label %while.body

while.body:                                       ; preds = %while.cond
  %key = getelementptr inbounds i8, ptr %call.i, i64 16
  %keyTok.sroa.0.0.copyload = load ptr, ptr %key, align 8
  %value = getelementptr inbounds i8, ptr %call.i, i64 8
  %valueTok.sroa.0.0.copyload = load ptr, ptr %value, align 8
  %call7 = call noundef ptr @_ZN6icu_757UMemorynwEm(i64 noundef 64) #10
  %new.isnull = icmp eq ptr %call7, null
  br i1 %new.isnull, label %new.cont, label %new.notnull

new.notnull:                                      ; preds = %while.body
  invoke void @_ZN6icu_7513UnicodeStringC1ERKS0_(ptr noundef nonnull align 8 dereferenceable(64) %call7, ptr noundef nonnull align 8 dereferenceable(64) %valueTok.sroa.0.0.copyload)
          to label %_ZN6icu_7512LocalPointerINS_13UnicodeStringEEC2EPS1_R10UErrorCode.exit unwind label %lpad

new.cont:                                         ; preds = %while.body
  %2 = load i32, ptr %status, align 4
  %cmp.i.i = icmp sgt i32 %2, 0
  br i1 %cmp.i.i, label %if.end25, label %if.then.i

if.then.i:                                        ; preds = %new.cont
  store i32 7, ptr %status, align 4
  br label %if.end25

_ZN6icu_7512LocalPointerINS_13UnicodeStringEEC2EPS1_R10UErrorCode.exit: ; preds = %new.notnull
  %.pre = load i32, ptr %status, align 4
  %cmp.i10 = icmp slt i32 %.pre, 1
  br i1 %cmp.i10, label %if.end13, label %delete.notnull.i

lpad:                                             ; preds = %new.notnull
  %3 = landingpad { ptr, i32 }
          cleanup
  call void @_ZN6icu_757UMemorydlEPv(ptr noundef nonnull %call7) #10
  br label %eh.resume

if.end13:                                         ; preds = %_ZN6icu_7512LocalPointerINS_13UnicodeStringEEC2EPS1_R10UErrorCode.exit
  invoke void @_ZN6icu_7513UnicodeStringC1ERKS0_(ptr noundef nonnull align 8 dereferenceable(64) %ref.tmp, ptr noundef nonnull align 8 dereferenceable(64) %keyTok.sroa.0.0.copyload)
          to label %invoke.cont14 unwind label %delete.notnull.i17

invoke.cont14:                                    ; preds = %if.end13
  %4 = load ptr, ptr %target, align 8
  %call.i12 = call noundef ptr @_ZN6icu_757UMemorynwEm(i64 noundef 64) #10
  %new.isnull.i = icmp eq ptr %call.i12, null
  br i1 %new.isnull.i, label %new.cont.i, label %new.notnull.i

new.notnull.i:                                    ; preds = %invoke.cont14
  invoke void @_ZN6icu_7513UnicodeStringC1ERKS0_(ptr noundef nonnull align 8 dereferenceable(64) %call.i12, ptr noundef nonnull align 8 dereferenceable(64) %ref.tmp)
          to label %new.cont.i unwind label %lpad.i

new.cont.i:                                       ; preds = %new.notnull.i, %invoke.cont14
  %call2.i13 = invoke noundef ptr @uhash_put_75(ptr noundef %4, ptr noundef %call.i12, ptr noundef nonnull %call7, ptr noundef nonnull %status)
          to label %_ZN6icu_7512LocalPointerINS_13UnicodeStringEED2Ev.exit unwind label %lpad15

lpad.i:                                           ; preds = %new.notnull.i
  %5 = landingpad { ptr, i32 }
          cleanup
  call void @_ZN6icu_757UMemorydlEPv(ptr noundef nonnull %call.i12) #10
  br label %ehcleanup.thread

lpad15:                                           ; preds = %new.cont.i
  %6 = landingpad { ptr, i32 }
          cleanup
  br label %ehcleanup.thread

ehcleanup.thread:                                 ; preds = %lpad15, %lpad.i
  %eh.lpad-body = phi { ptr, i32 } [ %6, %lpad15 ], [ %5, %lpad.i ]
  call void @_ZN6icu_7513UnicodeStringD1Ev(ptr noundef nonnull align 8 dereferenceable(64) %ref.tmp) #10
  br label %eh.resume

delete.notnull.i:                                 ; preds = %_ZN6icu_7512LocalPointerINS_13UnicodeStringEEC2EPS1_R10UErrorCode.exit
  %vtable.i = load ptr, ptr %call7, align 8
  %vfn.i = getelementptr inbounds i8, ptr %vtable.i, i64 8
  %7 = load ptr, ptr %vfn.i, align 8
  call void %7(ptr noundef nonnull align 8 dereferenceable(64) %call7) #10
  br label %if.end25

_ZN6icu_7512LocalPointerINS_13UnicodeStringEED2Ev.exit: ; preds = %new.cont.i
  call void @_ZN6icu_7513UnicodeStringD1Ev(ptr noundef nonnull align 8 dereferenceable(64) %ref.tmp) #10
  %8 = load i32, ptr %status, align 4
  %cmp.i14 = icmp slt i32 %8, 1
  br i1 %cmp.i14, label %while.cond, label %if.end25

delete.notnull.i17:                               ; preds = %if.end13
  %9 = landingpad { ptr, i32 }
          cleanup
  %vtable.i18 = load ptr, ptr %call7, align 8
  %vfn.i19 = getelementptr inbounds i8, ptr %vtable.i18, i64 8
  %10 = load ptr, ptr %vfn.i19, align 8
  call void %10(ptr noundef nonnull align 8 dereferenceable(64) %call7) #10
  br label %eh.resume

if.end25:                                         ; preds = %_ZN6icu_7512LocalPointerINS_13UnicodeStringEED2Ev.exit, %while.cond, %new.cont, %if.then.i, %delete.notnull.i, %entry, %if.end
  ret void

eh.resume:                                        ; preds = %delete.notnull.i17, %ehcleanup.thread, %lpad
  %.pn.pn = phi { ptr, i32 } [ %3, %lpad ], [ %eh.lpad-body, %ehcleanup.thread ], [ %9, %delete.notnull.i17 ]
  resume { ptr, i32 } %.pn.pn
}